target datalayout = "e-m:e-p270:32:32-p271:32:32-p272:64:64-i64:64-f80:128-n8:16:32:64-S128"
target triple = "x86_64-pc-linux-gnu"

@.str = private unnamed_addr constant [6 x i8] c"%d %d\00", align 1
@.str.1 = private unnamed_addr constant [3 x i8] c"%d\00", align 1
@.str.2 = private unnamed_addr constant [4 x i8] c"%d \00", align 1
@.str.3 = private unnamed_addr constant [4 x i8] c"%d\0A\00", align 1

; Function Attrs: noinline nounwind uwtable
define dso_local i32 @main() #0 {
  %1 = alloca i32, align 4
  %2 = alloca i32, align 4
  %3 = alloca i32, align 4
  %4 = alloca i32, align 4
  %5 = alloca i32**, align 8
  %6 = alloca i32, align 4
  %7 = alloca i32, align 4
  %8 = alloca i32, align 4
  %9 = alloca i32**, align 8
  %10 = alloca i32, align 4
  %11 = alloca i32, align 4
  %12 = alloca i32, align 4
  %13 = alloca i32**, align 8
  %14 = alloca i32, align 4
  %15 = alloca i32, align 4
  %16 = alloca i32, align 4
  %17 = alloca i32, align 4
  %18 = alloca i32, align 4
  %19 = alloca i32, align 4
  store i32 0, i32* %1, align 4
  %20 = call i32 (i8*, ...) @__isoc99_scanf(i8* getelementptr inbounds ([6 x i8], [6 x i8]* @.str, i64 0, i64 0), i32* %2, i32* %3)
  %21 = load i32, i32* %2, align 4
  %22 = sext i32 %21 to i64
  %23 = mul i64 %22, 8
  %24 = call noalias i8* @malloc(i64 %23) #3
  %25 = bitcast i8* %24 to i32**
  store i32** %25, i32*** %5, align 8
  store i32 0, i32* %6, align 4
  br label %26

26:                                               ; preds = %40, %0
  %27 = load i32, i32* %6, align 4
  %28 = load i32, i32* %2, align 4
  %29 = icmp slt i32 %27, %28
  br i1 %29, label %30, label %43

30:                                               ; preds = %26
  %31 = load i32, i32* %3, align 4
  %32 = sext i32 %31 to i64
  %33 = mul i64 %32, 4
  %34 = call noalias i8* @malloc(i64 %33) #3
  %35 = bitcast i8* %34 to i32*
  %36 = load i32**, i32*** %5, align 8
  %37 = load i32, i32* %6, align 4
  %38 = sext i32 %37 to i64
  %39 = getelementptr inbounds i32*, i32** %36, i64 %38
  store i32* %35, i32** %39, align 8
  br label %40

40:                                               ; preds = %30
  %41 = load i32, i32* %6, align 4
  %42 = add nsw i32 %41, 1
  store i32 %42, i32* %6, align 4
  br label %26

43:                                               ; preds = %26
  store i32 0, i32* %7, align 4
  br label %44

44:                                               ; preds = %67, %43
  %45 = load i32, i32* %7, align 4
  %46 = load i32, i32* %2, align 4
  %47 = icmp slt i32 %45, %46
  br i1 %47, label %48, label %70

48:                                               ; preds = %44
  store i32 0, i32* %8, align 4
  br label %49

49:                                               ; preds = %63, %48
  %50 = load i32, i32* %8, align 4
  %51 = load i32, i32* %3, align 4
  %52 = icmp slt i32 %50, %51
  br i1 %52, label %53, label %66

53:                                               ; preds = %49
  %54 = load i32**, i32*** %5, align 8
  %55 = load i32, i32* %7, align 4
  %56 = sext i32 %55 to i64
  %57 = getelementptr inbounds i32*, i32** %54, i64 %56
  %58 = load i32*, i32** %57, align 8
  %59 = load i32, i32* %8, align 4
  %60 = sext i32 %59 to i64
  %61 = getelementptr inbounds i32, i32* %58, i64 %60
  %62 = call i32 (i8*, ...) @__isoc99_scanf(i8* getelementptr inbounds ([3 x i8], [3 x i8]* @.str.1, i64 0, i64 0), i32* %61)
  br label %63

63:                                               ; preds = %53
  %64 = load i32, i32* %8, align 4
  %65 = add nsw i32 %64, 1
  store i32 %65, i32* %8, align 4
  br label %49

66:                                               ; preds = %49
  br label %67

67:                                               ; preds = %66
  %68 = load i32, i32* %7, align 4
  %69 = add nsw i32 %68, 1
  store i32 %69, i32* %7, align 4
  br label %44

70:                                               ; preds = %44
  %71 = call i32 (i8*, ...) @__isoc99_scanf(i8* getelementptr inbounds ([6 x i8], [6 x i8]* @.str, i64 0, i64 0), i32* %3, i32* %4)
  %72 = load i32, i32* %3, align 4
  %73 = sext i32 %72 to i64
  %74 = mul i64 %73, 8
  %75 = call noalias i8* @malloc(i64 %74) #3
  %76 = bitcast i8* %75 to i32**
  store i32** %76, i32*** %9, align 8
  store i32 0, i32* %10, align 4
  br label %77

77:                                               ; preds = %91, %70
  %78 = load i32, i32* %10, align 4
  %79 = load i32, i32* %3, align 4
  %80 = icmp slt i32 %78, %79
  br i1 %80, label %81, label %94

81:                                               ; preds = %77
  %82 = load i32, i32* %4, align 4
  %83 = sext i32 %82 to i64
  %84 = mul i64 %83, 4
  %85 = call noalias i8* @malloc(i64 %84) #3
  %86 = bitcast i8* %85 to i32*
  %87 = load i32**, i32*** %9, align 8
  %88 = load i32, i32* %10, align 4
  %89 = sext i32 %88 to i64
  %90 = getelementptr inbounds i32*, i32** %87, i64 %89
  store i32* %86, i32** %90, align 8
  br label %91

91:                                               ; preds = %81
  %92 = load i32, i32* %10, align 4
  %93 = add nsw i32 %92, 1
  store i32 %93, i32* %10, align 4
  br label %77

94:                                               ; preds = %77
  store i32 0, i32* %11, align 4
  br label %95

95:                                               ; preds = %118, %94
  %96 = load i32, i32* %11, align 4
  %97 = load i32, i32* %3, align 4
  %98 = icmp slt i32 %96, %97
  br i1 %98, label %99, label %121

99:                                               ; preds = %95
  store i32 0, i32* %12, align 4
  br label %100

100:                                              ; preds = %114, %99
  %101 = load i32, i32* %12, align 4
  %102 = load i32, i32* %4, align 4
  %103 = icmp slt i32 %101, %102
  br i1 %103, label %104, label %117

104:                                              ; preds = %100
  %105 = load i32**, i32*** %9, align 8
  %106 = load i32, i32* %11, align 4
  %107 = sext i32 %106 to i64
  %108 = getelementptr inbounds i32*, i32** %105, i64 %107
  %109 = load i32*, i32** %108, align 8
  %110 = load i32, i32* %12, align 4
  %111 = sext i32 %110 to i64
  %112 = getelementptr inbounds i32, i32* %109, i64 %111
  %113 = call i32 (i8*, ...) @__isoc99_scanf(i8* getelementptr inbounds ([3 x i8], [3 x i8]* @.str.1, i64 0, i64 0), i32* %112)
  br label %114

114:                                              ; preds = %104
  %115 = load i32, i32* %12, align 4
  %116 = add nsw i32 %115, 1
  store i32 %116, i32* %12, align 4
  br label %100

117:                                              ; preds = %100
  br label %118

118:                                              ; preds = %117
  %119 = load i32, i32* %11, align 4
  %120 = add nsw i32 %119, 1
  store i32 %120, i32* %11, align 4
  br label %95

121:                                              ; preds = %95
  %122 = load i32, i32* %2, align 4
  %123 = sext i32 %122 to i64
  %124 = mul i64 %123, 8
  %125 = call noalias i8* @malloc(i64 %124) #3
  %126 = bitcast i8* %125 to i32**
  store i32** %126, i32*** %13, align 8
  store i32 0, i32* %14, align 4
  br label %127

127:                                              ; preds = %141, %121
  %128 = load i32, i32* %14, align 4
  %129 = load i32, i32* %2, align 4
  %130 = icmp slt i32 %128, %129
  br i1 %130, label %131, label %144

131:                                              ; preds = %127
  %132 = load i32, i32* %4, align 4
  %133 = sext i32 %132 to i64
  %134 = mul i64 %133, 4
  %135 = call noalias i8* @malloc(i64 %134) #3
  %136 = bitcast i8* %135 to i32*
  %137 = load i32**, i32*** %13, align 8
  %138 = load i32, i32* %14, align 4
  %139 = sext i32 %138 to i64
  %140 = getelementptr inbounds i32*, i32** %137, i64 %139
  store i32* %136, i32** %140, align 8
  br label %141

141:                                              ; preds = %131
  %142 = load i32, i32* %14, align 4
  %143 = add nsw i32 %142, 1
  store i32 %143, i32* %14, align 4
  br label %127

144:                                              ; preds = %127
  store i32 0, i32* %15, align 4
  br label %145

145:                                              ; preds = %205, %144
  %146 = load i32, i32* %15, align 4
  %147 = load i32, i32* %2, align 4
  %148 = icmp slt i32 %146, %147
  br i1 %148, label %149, label %208

149:                                              ; preds = %145
  store i32 0, i32* %16, align 4
  br label %150

150:                                              ; preds = %201, %149
  %151 = load i32, i32* %16, align 4
  %152 = load i32, i32* %4, align 4
  %153 = icmp slt i32 %151, %152
  br i1 %153, label %154, label %204

154:                                              ; preds = %150
  store i32 0, i32* %17, align 4
  br label %155

155:                                              ; preds = %197, %154
  %156 = load i32, i32* %17, align 4
  %157 = load i32, i32* %3, align 4
  %158 = icmp slt i32 %156, %157
  br i1 %158, label %159, label %200

159:                                              ; preds = %155
  %160 = load i32**, i32*** %13, align 8
  %161 = load i32, i32* %15, align 4
  %162 = sext i32 %161 to i64
  %163 = getelementptr inbounds i32*, i32** %160, i64 %162
  %164 = load i32*, i32** %163, align 8
  %165 = load i32, i32* %16, align 4
  %166 = sext i32 %165 to i64
  %167 = getelementptr inbounds i32, i32* %164, i64 %166
  %168 = load i32, i32* %167, align 4
  %169 = load i32**, i32*** %5, align 8
  %170 = load i32, i32* %15, align 4
  %171 = sext i32 %170 to i64
  %172 = getelementptr inbounds i32*, i32** %169, i64 %171
  %173 = load i32*, i32** %172, align 8
  %174 = load i32, i32* %17, align 4
  %175 = sext i32 %174 to i64
  %176 = getelementptr inbounds i32, i32* %173, i64 %175
  %177 = load i32, i32* %176, align 4
  %178 = load i32**, i32*** %9, align 8
  %179 = load i32, i32* %17, align 4
  %180 = sext i32 %179 to i64
  %181 = getelementptr inbounds i32*, i32** %178, i64 %180
  %182 = load i32*, i32** %181, align 8
  %183 = load i32, i32* %16, align 4
  %184 = sext i32 %183 to i64
  %185 = getelementptr inbounds i32, i32* %182, i64 %184
  %186 = load i32, i32* %185, align 4
  %187 = mul nsw i32 %177, %186
  %188 = add nsw i32 %168, %187
  %189 = load i32**, i32*** %13, align 8
  %190 = load i32, i32* %15, align 4
  %191 = sext i32 %190 to i64
  %192 = getelementptr inbounds i32*, i32** %189, i64 %191
  %193 = load i32*, i32** %192, align 8
  %194 = load i32, i32* %16, align 4
  %195 = sext i32 %194 to i64
  %196 = getelementptr inbounds i32, i32* %193, i64 %195
  store i32 %188, i32* %196, align 4
  br label %197

197:                                              ; preds = %159
  %198 = load i32, i32* %17, align 4
  %199 = add nsw i32 %198, 1
  store i32 %199, i32* %17, align 4
  br label %155

200:                                              ; preds = %155
  br label %201

201:                                              ; preds = %200
  %202 = load i32, i32* %16, align 4
  %203 = add nsw i32 %202, 1
  store i32 %203, i32* %16, align 4
  br label %150

204:                                              ; preds = %150
  br label %205

205:                                              ; preds = %204
  %206 = load i32, i32* %15, align 4
  %207 = add nsw i32 %206, 1
  store i32 %207, i32* %15, align 4
  br label %145

208:                                              ; preds = %145
  store i32 0, i32* %18, align 4
  br label %209

209:                                              ; preds = %244, %208
  %210 = load i32, i32* %18, align 4
  %211 = load i32, i32* %2, align 4
  %212 = icmp slt i32 %210, %211
  br i1 %212, label %213, label %247

213:                                              ; preds = %209
  store i32 0, i32* %19, align 4
  br label %214

214:                                              ; preds = %230, %213
  %215 = load i32, i32* %19, align 4
  %216 = load i32, i32* %4, align 4
  %217 = sub nsw i32 %216, 1
  %218 = icmp slt i32 %215, %217
  br i1 %218, label %219, label %233

219:                                              ; preds = %214
  %220 = load i32**, i32*** %13, align 8
  %221 = load i32, i32* %18, align 4
  %222 = sext i32 %221 to i64
  %223 = getelementptr inbounds i32*, i32** %220, i64 %222
  %224 = load i32*, i32** %223, align 8
  %225 = load i32, i32* %19, align 4
  %226 = sext i32 %225 to i64
  %227 = getelementptr inbounds i32, i32* %224, i64 %226
  %228 = load i32, i32* %227, align 4
  %229 = call i32 (i8*, ...) @printf(i8* getelementptr inbounds ([4 x i8], [4 x i8]* @.str.2, i64 0, i64 0), i32 %228)
  br label %230

230:                                              ; preds = %219
  %231 = load i32, i32* %19, align 4
  %232 = add nsw i32 %231, 1
  store i32 %232, i32* %19, align 4
  br label %214

233:                                              ; preds = %214
  %234 = load i32**, i32*** %13, align 8
  %235 = load i32, i32* %18, align 4
  %236 = sext i32 %235 to i64
  %237 = getelementptr inbounds i32*, i32** %234, i64 %236
  %238 = load i32*, i32** %237, align 8
  %239 = load i32, i32* %19, align 4
  %240 = sext i32 %239 to i64
  %241 = getelementptr inbounds i32, i32* %238, i64 %240
  %242 = load i32, i32* %241, align 4
  %243 = call i32 (i8*, ...) @printf(i8* getelementptr inbounds ([4 x i8], [4 x i8]* @.str.3, i64 0, i64 0), i32 %242)
  br label %244

244:                                              ; preds = %233
  %245 = load i32, i32* %18, align 4
  %246 = add nsw i32 %245, 1
  store i32 %246, i32* %18, align 4
  br label %209

247:                                              ; preds = %209
  %248 = load i32, i32* %1, align 4
  ret i32 %248
}